; Function Attrs: mustprogress nofree nounwind willreturn memory(read, inaccessiblemem: none) uwtable
define range(i32 -1, 2) i32 @Mio_LibraryCompareGatesByName(ptr noundef readonly captures(none) %0, ptr noundef readonly captures(none) %1) #10 {
  %3 = load ptr, ptr %0, align 8, !tbaa !66
  %4 = load ptr, ptr %3, align 8, !tbaa !41
  %5 = load ptr, ptr %1, align 8, !tbaa !66
  %6 = load ptr, ptr %5, align 8, !tbaa !41
  %7 = tail call i32 @strcmp(ptr noundef nonnull dereferenceable(1) %4, ptr noundef nonnull dereferenceable(1) %6) #18
  %.not = icmp ne i32 %7, 0
  %. = zext i1 %.not to i32
  %.inv = icmp sgt i32 %7, -1
  %.0 = select i1 %.inv, i32 %., i32 -1
  ret i32 %.0
}